; Function Attrs: mustprogress uwtable
define hidden void @_ZN2cv3dpm10DPMCascade6detectERNS_3MatE(ptr dead_on_unwind noalias writable sret(%"class.std::vector.5") align 8 initializes((0, 24)) %0, ptr noundef nonnull align 8 dereferenceable(921) %1, ptr noundef nonnull align 8 dereferenceable(96) %2) local_unnamed_addr #3 align 2 personality ptr @__gxx_personality_v0 {
  %4 = alloca %"class.cv::_InputArray", align 8
  %5 = alloca %"class.cv::_OutputArray", align 8
  %6 = alloca %"class.cv::_OutputArray", align 8
  %7 = alloca %"class.cv::dpm::NonMaximumSuppression", align 1
  %8 = load i32, ptr %2, align 8, !tbaa !84
  %9 = and i32 %8, 4088
  %10 = icmp eq i32 %9, 0
  br i1 %10, label %11, label %17

11:                                               ; preds = %3
  call void @llvm.lifetime.start.p0(i64 24, ptr nonnull %4) #20
  %12 = getelementptr inbounds nuw i8, ptr %4, i64 16
  store i32 0, ptr %12, align 8, !tbaa !85
  %13 = getelementptr inbounds nuw i8, ptr %4, i64 20
  store i32 0, ptr %13, align 4, !tbaa !87
  store i32 16842752, ptr %4, align 8, !tbaa !88
  %14 = getelementptr inbounds nuw i8, ptr %4, i64 8
  store ptr %2, ptr %14, align 8, !tbaa !90
  call void @llvm.lifetime.start.p0(i64 24, ptr nonnull %5) #20
  %15 = getelementptr inbounds nuw i8, ptr %5, i64 8
  %16 = getelementptr inbounds nuw i8, ptr %5, i64 16
  store i64 0, ptr %16, align 8
  store i32 33619968, ptr %5, align 8, !tbaa !88
  store ptr %2, ptr %15, align 8, !tbaa !90
  call void @_ZN2cv8cvtColorERKNS_11_InputArrayERKNS_12_OutputArrayEiiNS_13AlgorithmHintE(ptr noundef nonnull align 8 dereferenceable(24) %4, ptr noundef nonnull align 8 dereferenceable(24) %5, i32 noundef 8, i32 noundef 0, i32 noundef 0)
  call void @llvm.lifetime.end.p0(i64 24, ptr nonnull %5) #20
  call void @llvm.lifetime.end.p0(i64 24, ptr nonnull %4) #20
  %.pre = load i32, ptr %2, align 8, !tbaa !84
  br label %17

17:                                               ; preds = %11, %3
  %18 = phi i32 [ %.pre, %11 ], [ %8, %3 ]
  %19 = and i32 %18, 7
  %.not = icmp eq i32 %19, 6
  br i1 %.not, label %23, label %20

20:                                               ; preds = %17
  call void @llvm.lifetime.start.p0(i64 24, ptr nonnull %6) #20
  %21 = getelementptr inbounds nuw i8, ptr %6, i64 8
  %22 = getelementptr inbounds nuw i8, ptr %6, i64 16
  store i64 0, ptr %22, align 8
  store i32 33619968, ptr %6, align 8, !tbaa !88
  store ptr %2, ptr %21, align 8, !tbaa !90
  call void @_ZNK2cv3Mat9convertToERKNS_12_OutputArrayEidd(ptr noundef nonnull align 8 dereferenceable(96) %2, ptr noundef nonnull align 8 dereferenceable(24) %6, i32 noundef 22, double noundef 1.000000e+00, double noundef 0.000000e+00)
  call void @llvm.lifetime.end.p0(i64 24, ptr nonnull %6) #20
  br label %23

23:                                               ; preds = %20, %17
  call void @_ZN2cv3dpm10DPMCascade15computeFeaturesERKNS_3MatE(ptr noundef nonnull align 8 dereferenceable(921) %1, ptr noundef nonnull align 8 dereferenceable(96) %2)
  call void @_ZN2cv3dpm10DPMCascade14initDPMCascadeEv(ptr noundef nonnull align 8 dereferenceable(921) %1)
  call void @llvm.memset.p0.i64(ptr noundef nonnull align 8 dereferenceable(24) %0, i8 0, i64 24, i1 false)
  invoke void @_ZN2cv3dpm10DPMCascade7processERSt6vectorIS2_IdSaIdEESaIS4_EE(ptr noundef nonnull align 8 dereferenceable(921) %1, ptr noundef nonnull align 8 dereferenceable(24) %0)
          to label %24 unwind label %26

24:                                               ; preds = %23
  call void @llvm.lifetime.start.p0(i64 1, ptr nonnull %7) #20
  invoke void @_ZN2cv3dpm21NonMaximumSuppression7processERSt6vectorIS2_IdSaIdEESaIS4_EEd(ptr noundef nonnull align 1 dereferenceable(1) %7, ptr noundef nonnull align 8 dereferenceable(24) %0, double noundef 5.000000e-01)
          to label %25 unwind label %28

25:                                               ; preds = %24
  call void @llvm.lifetime.end.p0(i64 1, ptr nonnull %7) #20
  ret void

26:                                               ; preds = %23
  %27 = landingpad { ptr, i32 }
          cleanup
  br label %30

28:                                               ; preds = %24
  %29 = landingpad { ptr, i32 }
          cleanup
  call void @llvm.lifetime.end.p0(i64 1, ptr nonnull %7) #20
  br label %30

30:                                               ; preds = %28, %26
  %.pn14 = phi { ptr, i32 } [ %29, %28 ], [ %27, %26 ]
  call void @_ZNSt6vectorIS_IdSaIdEESaIS1_EED2Ev(ptr noundef nonnull align 8 dereferenceable(24) %0) #20
  resume { ptr, i32 } %.pn14
}